target datalayout = "e-m:e-p270:32:32-p271:32:32-p272:64:64-i64:64-i128:128-f80:128-n8:16:32:64-S128"
target triple = "x86_64-pc-linux-gnu"

%struct.exr_chunk_info_t = type { i32, i32, i32, i32, i32, i8, i8, i8, i8, i64, i64, i64, i64, i64 }
%struct.exr_coding_channel_info_t = type { ptr, i32, i32, i32, i32, i8, i8, i16, i16, i16, i32, i32, %union.anon }
%union.anon = type { ptr }
%struct._exr_encode_pipeline = type { i64, ptr, i16, i16, i32, ptr, %struct.exr_chunk_info_t, ptr, ptr, i64, i64, ptr, i64, ptr, i64, i64, ptr, i64, i64, ptr, i64, ptr, i64, ptr, ptr, ptr, ptr, ptr, ptr, [5 x %struct.exr_coding_channel_info_t] }
%struct._priv_exr_context_t = type { i8, i8, i8, i8, i8, i8, i8, i8, %struct.exr_attr_string_t, %struct.exr_attr_string_t, ptr, ptr, ptr, ptr, ptr, ptr, ptr, ptr, i32, i32, i32, i32, i32, float, ptr, ptr, ptr, i64, ptr, ptr, i64, i32, i32, i32, i32, %struct._priv_exr_part_t, ptr, ptr, %struct.exr_attribute_list, %union.pthread_mutex_t, i8, i8, [2 x i8], i32 }
%struct.exr_attr_string_t = type { i32, i32, ptr }
%struct._priv_exr_part_t = type { i32, i32, %struct.exr_attribute_list, ptr, ptr, ptr, ptr, ptr, ptr, ptr, ptr, ptr, ptr, ptr, ptr, ptr, ptr, %struct.exr_attr_box2i_t, %struct.exr_attr_box2i_t, i32, i32, i32, float, i32, i32, ptr, ptr, ptr, ptr, i64, i16, i16, i32, i64, i64 }
%struct.exr_attr_box2i_t = type { %struct.exr_attr_v2i_t, %struct.exr_attr_v2i_t }
%struct.exr_attr_v2i_t = type { i32, i32 }
%struct.exr_attribute_list = type { i32, i32, ptr, ptr }
%union.pthread_mutex_t = type { %struct.__pthread_mutex_s }
%struct.__pthread_mutex_s = type { i32, i32, i32, i32, i32, i16, i16, %struct.__pthread_internal_list }
%struct.__pthread_internal_list = type { ptr, ptr }

@.str = private unnamed_addr constant [59 x i8] c"Unable to allocate scratch buffer for deflate of %lu bytes\00", align 1
@.str.1 = private unnamed_addr constant [48 x i8] c"Unable to compress buffer %lu -> %lu @ level %d\00", align 1

; Function Attrs: nounwind uwtable
define hidden void @internal_zip_deconstruct_bytes(ptr noundef %0, ptr noundef %1, i64 noundef %2) #0 {
  %4 = alloca ptr, align 8
  %5 = alloca ptr, align 8
  %6 = alloca i64, align 8
  %7 = alloca i32, align 4
  %8 = alloca ptr, align 8
  %9 = alloca ptr, align 8
  %10 = alloca ptr, align 8
  %11 = alloca ptr, align 8
  %12 = alloca i32, align 4
  store ptr %0, ptr %4, align 8, !tbaa !3
  store ptr %1, ptr %5, align 8, !tbaa !3
  store i64 %2, ptr %6, align 8, !tbaa !8
  call void @llvm.lifetime.start.p0(i64 4, ptr %7) #6
  call void @llvm.lifetime.start.p0(i64 8, ptr %8) #6
  %13 = load ptr, ptr %4, align 8, !tbaa !3
  store ptr %13, ptr %8, align 8, !tbaa !3
  call void @llvm.lifetime.start.p0(i64 8, ptr %9) #6
  %14 = load ptr, ptr %8, align 8, !tbaa !3
  %15 = load i64, ptr %6, align 8, !tbaa !8
  %16 = add i64 %15, 1
  %17 = udiv i64 %16, 2
  %18 = getelementptr inbounds nuw i8, ptr %14, i64 %17
  store ptr %18, ptr %9, align 8, !tbaa !3
  call void @llvm.lifetime.start.p0(i64 8, ptr %10) #6
  %19 = load ptr, ptr %5, align 8, !tbaa !3
  store ptr %19, ptr %10, align 8, !tbaa !3
  call void @llvm.lifetime.start.p0(i64 8, ptr %11) #6
  %20 = load ptr, ptr %10, align 8, !tbaa !3
  %21 = load i64, ptr %6, align 8, !tbaa !8
  %22 = getelementptr inbounds nuw i8, ptr %20, i64 %21
  store ptr %22, ptr %11, align 8, !tbaa !3
  br label %23

23:                                               ; preds = %42, %3
  %24 = load ptr, ptr %10, align 8, !tbaa !3
  %25 = load ptr, ptr %11, align 8, !tbaa !3
  %26 = icmp ult ptr %24, %25
  br i1 %26, label %27, label %43

27:                                               ; preds = %23
  %28 = load ptr, ptr %10, align 8, !tbaa !3
  %29 = getelementptr inbounds nuw i8, ptr %28, i32 1
  store ptr %29, ptr %10, align 8, !tbaa !3
  %30 = load i8, ptr %28, align 1, !tbaa !10
  %31 = load ptr, ptr %8, align 8, !tbaa !3
  %32 = getelementptr inbounds nuw i8, ptr %31, i32 1
  store ptr %32, ptr %8, align 8, !tbaa !3
  store i8 %30, ptr %31, align 1, !tbaa !10
  %33 = load ptr, ptr %10, align 8, !tbaa !3
  %34 = load ptr, ptr %11, align 8, !tbaa !3
  %35 = icmp ult ptr %33, %34
  br i1 %35, label %36, label %42

36:                                               ; preds = %27
  %37 = load ptr, ptr %10, align 8, !tbaa !3
  %38 = getelementptr inbounds nuw i8, ptr %37, i32 1
  store ptr %38, ptr %10, align 8, !tbaa !3
  %39 = load i8, ptr %37, align 1, !tbaa !10
  %40 = load ptr, ptr %9, align 8, !tbaa !3
  %41 = getelementptr inbounds nuw i8, ptr %40, i32 1
  store ptr %41, ptr %9, align 8, !tbaa !3
  store i8 %39, ptr %40, align 1, !tbaa !10
  br label %42

42:                                               ; preds = %36, %27
  br label %23, !llvm.loop !18

43:                                               ; preds = %23
  %44 = load ptr, ptr %4, align 8, !tbaa !3
  store ptr %44, ptr %8, align 8, !tbaa !3
  %45 = load ptr, ptr %8, align 8, !tbaa !3
  %46 = load i64, ptr %6, align 8, !tbaa !8
  %47 = getelementptr inbounds nuw i8, ptr %45, i64 %46
  store ptr %47, ptr %9, align 8, !tbaa !3
  %48 = load ptr, ptr %8, align 8, !tbaa !3
  %49 = getelementptr inbounds nuw i8, ptr %48, i32 1
  store ptr %49, ptr %8, align 8, !tbaa !3
  %50 = load ptr, ptr %8, align 8, !tbaa !3
  %51 = getelementptr inbounds i8, ptr %50, i64 -1
  %52 = load i8, ptr %51, align 1, !tbaa !10
  %53 = zext i8 %52 to i32
  store i32 %53, ptr %7, align 4, !tbaa !11
  br label %54

54:                                               ; preds = %58, %43
  %55 = load ptr, ptr %8, align 8, !tbaa !3
  %56 = load ptr, ptr %9, align 8, !tbaa !3
  %57 = icmp ult ptr %55, %56
  br i1 %57, label %58, label %76

58:                                               ; preds = %54
  call void @llvm.lifetime.start.p0(i64 4, ptr %12) #6
  %59 = load ptr, ptr %8, align 8, !tbaa !3
  %60 = getelementptr inbounds i8, ptr %59, i64 0
  %61 = load i8, ptr %60, align 1, !tbaa !10
  %62 = zext i8 %61 to i32
  %63 = load i32, ptr %7, align 4, !tbaa !11
  %64 = sub nsw i32 %62, %63
  %65 = add nsw i32 %64, 384
  store i32 %65, ptr %12, align 4, !tbaa !11
  %66 = load ptr, ptr %8, align 8, !tbaa !3
  %67 = getelementptr inbounds i8, ptr %66, i64 0
  %68 = load i8, ptr %67, align 1, !tbaa !10
  %69 = zext i8 %68 to i32
  store i32 %69, ptr %7, align 4, !tbaa !11
  %70 = load i32, ptr %12, align 4, !tbaa !11
  %71 = trunc i32 %70 to i8
  %72 = load ptr, ptr %8, align 8, !tbaa !3
  %73 = getelementptr inbounds i8, ptr %72, i64 0
  store i8 %71, ptr %73, align 1, !tbaa !10
  %74 = load ptr, ptr %8, align 8, !tbaa !3
  %75 = getelementptr inbounds nuw i8, ptr %74, i32 1
  store ptr %75, ptr %8, align 8, !tbaa !3
  call void @llvm.lifetime.end.p0(i64 4, ptr %12) #6
  br label %54, !llvm.loop !19

76:                                               ; preds = %54
  call void @llvm.lifetime.end.p0(i64 8, ptr %11) #6
  call void @llvm.lifetime.end.p0(i64 8, ptr %10) #6
  call void @llvm.lifetime.end.p0(i64 8, ptr %9) #6
  call void @llvm.lifetime.end.p0(i64 8, ptr %8) #6
  call void @llvm.lifetime.end.p0(i64 4, ptr %7) #6
  ret void
}

; Function Attrs: nounwind uwtable
define internal i32 @apply_zip_impl(ptr noundef %0) #0 {
  %2 = alloca i32, align 4
  %3 = alloca ptr, align 8
  %4 = alloca i32, align 4
  %5 = alloca i64, align 8
  %6 = alloca i32, align 4
  %7 = alloca i32, align 4
  %8 = alloca ptr, align 8
  store ptr %0, ptr %3, align 8, !tbaa !31
  call void @llvm.lifetime.start.p0(i64 4, ptr %4) #6
  call void @llvm.lifetime.start.p0(i64 8, ptr %5) #6
  call void @llvm.lifetime.start.p0(i64 4, ptr %6) #6
  %9 = load ptr, ptr %3, align 8, !tbaa !31
  %10 = getelementptr inbounds nuw %struct._exr_encode_pipeline, ptr %9, i32 0, i32 5
  %11 = load ptr, ptr %10, align 8, !tbaa !35
  %12 = load ptr, ptr %3, align 8, !tbaa !31
  %13 = getelementptr inbounds nuw %struct._exr_encode_pipeline, ptr %12, i32 0, i32 4
  %14 = load i32, ptr %13, align 4, !tbaa !48
  %15 = call i32 @exr_get_zip_compression_level(ptr noundef %11, i32 noundef %14, ptr noundef %4)
  store i32 %15, ptr %6, align 4, !tbaa !11
  %16 = load i32, ptr %6, align 4, !tbaa !11
  %17 = icmp ne i32 %16, 0
  br i1 %17, label %18, label %20

18:                                               ; preds = %1
  %19 = load i32, ptr %6, align 4, !tbaa !11
  store i32 %19, ptr %2, align 4
  store i32 1, ptr %7, align 4
  br label %95

20:                                               ; preds = %1
  %21 = load ptr, ptr %3, align 8, !tbaa !31
  %22 = getelementptr inbounds nuw %struct._exr_encode_pipeline, ptr %21, i32 0, i32 19
  %23 = load ptr, ptr %22, align 8, !tbaa !49
  %24 = load ptr, ptr %3, align 8, !tbaa !31
  %25 = getelementptr inbounds nuw %struct._exr_encode_pipeline, ptr %24, i32 0, i32 8
  %26 = load ptr, ptr %25, align 8, !tbaa !50
  %27 = load ptr, ptr %3, align 8, !tbaa !31
  %28 = getelementptr inbounds nuw %struct._exr_encode_pipeline, ptr %27, i32 0, i32 9
  %29 = load i64, ptr %28, align 8, !tbaa !33
  call void @internal_zip_deconstruct_bytes(ptr noundef %23, ptr noundef %26, i64 noundef %29)
  %30 = load ptr, ptr %3, align 8, !tbaa !31
  %31 = getelementptr inbounds nuw %struct._exr_encode_pipeline, ptr %30, i32 0, i32 5
  %32 = load ptr, ptr %31, align 8, !tbaa !35
  %33 = load i32, ptr %4, align 4, !tbaa !11
  %34 = load ptr, ptr %3, align 8, !tbaa !31
  %35 = getelementptr inbounds nuw %struct._exr_encode_pipeline, ptr %34, i32 0, i32 19
  %36 = load ptr, ptr %35, align 8, !tbaa !49
  %37 = load ptr, ptr %3, align 8, !tbaa !31
  %38 = getelementptr inbounds nuw %struct._exr_encode_pipeline, ptr %37, i32 0, i32 9
  %39 = load i64, ptr %38, align 8, !tbaa !33
  %40 = load ptr, ptr %3, align 8, !tbaa !31
  %41 = getelementptr inbounds nuw %struct._exr_encode_pipeline, ptr %40, i32 0, i32 16
  %42 = load ptr, ptr %41, align 8, !tbaa !51
  %43 = load ptr, ptr %3, align 8, !tbaa !31
  %44 = getelementptr inbounds nuw %struct._exr_encode_pipeline, ptr %43, i32 0, i32 18
  %45 = load i64, ptr %44, align 8, !tbaa !52
  %46 = call i32 @exr_compress_buffer(ptr noundef %32, i32 noundef %33, ptr noundef %36, i64 noundef %39, ptr noundef %42, i64 noundef %45, ptr noundef %5)
  store i32 %46, ptr %6, align 4, !tbaa !11
  %47 = load i32, ptr %6, align 4, !tbaa !11
  %48 = icmp eq i32 %47, 0
  br i1 %48, label %49, label %72

49:                                               ; preds = %20
  %50 = load i64, ptr %5, align 8, !tbaa !8
  %51 = load ptr, ptr %3, align 8, !tbaa !31
  %52 = getelementptr inbounds nuw %struct._exr_encode_pipeline, ptr %51, i32 0, i32 9
  %53 = load i64, ptr %52, align 8, !tbaa !33
  %54 = icmp ugt i64 %50, %53
  br i1 %54, label %55, label %68

55:                                               ; preds = %49
  %56 = load ptr, ptr %3, align 8, !tbaa !31
  %57 = getelementptr inbounds nuw %struct._exr_encode_pipeline, ptr %56, i32 0, i32 16
  %58 = load ptr, ptr %57, align 8, !tbaa !51
  %59 = load ptr, ptr %3, align 8, !tbaa !31
  %60 = getelementptr inbounds nuw %struct._exr_encode_pipeline, ptr %59, i32 0, i32 8
  %61 = load ptr, ptr %60, align 8, !tbaa !50
  %62 = load ptr, ptr %3, align 8, !tbaa !31
  %63 = getelementptr inbounds nuw %struct._exr_encode_pipeline, ptr %62, i32 0, i32 9
  %64 = load i64, ptr %63, align 8, !tbaa !33
  call void @llvm.memcpy.p0.p0.i64(ptr align 1 %58, ptr align 1 %61, i64 %64, i1 false)
  %65 = load ptr, ptr %3, align 8, !tbaa !31
  %66 = getelementptr inbounds nuw %struct._exr_encode_pipeline, ptr %65, i32 0, i32 9
  %67 = load i64, ptr %66, align 8, !tbaa !33
  store i64 %67, ptr %5, align 8, !tbaa !8
  br label %68

68:                                               ; preds = %55, %49
  %69 = load i64, ptr %5, align 8, !tbaa !8
  %70 = load ptr, ptr %3, align 8, !tbaa !31
  %71 = getelementptr inbounds nuw %struct._exr_encode_pipeline, ptr %70, i32 0, i32 17
  store i64 %69, ptr %71, align 8, !tbaa !53
  br label %93

72:                                               ; preds = %20
  call void @llvm.lifetime.start.p0(i64 8, ptr %8) #6
  %73 = load ptr, ptr %3, align 8, !tbaa !31
  %74 = getelementptr inbounds nuw %struct._exr_encode_pipeline, ptr %73, i32 0, i32 5
  %75 = load ptr, ptr %74, align 8, !tbaa !35
  store ptr %75, ptr %8, align 8, !tbaa !36
  %76 = load ptr, ptr %8, align 8, !tbaa !36
  %77 = icmp ne ptr %76, null
  br i1 %77, label %78, label %92

78:                                               ; preds = %72
  %79 = load ptr, ptr %8, align 8, !tbaa !36
  %80 = getelementptr inbounds nuw %struct._priv_exr_context_t, ptr %79, i32 0, i32 14
  %81 = load ptr, ptr %80, align 8, !tbaa !37
  %82 = load ptr, ptr %8, align 8, !tbaa !36
  %83 = load i32, ptr %6, align 4, !tbaa !11
  %84 = load ptr, ptr %3, align 8, !tbaa !31
  %85 = getelementptr inbounds nuw %struct._exr_encode_pipeline, ptr %84, i32 0, i32 9
  %86 = load i64, ptr %85, align 8, !tbaa !33
  %87 = load ptr, ptr %3, align 8, !tbaa !31
  %88 = getelementptr inbounds nuw %struct._exr_encode_pipeline, ptr %87, i32 0, i32 18
  %89 = load i64, ptr %88, align 8, !tbaa !52
  %90 = load i32, ptr %4, align 4, !tbaa !11
  %91 = call i32 (ptr, i32, ptr, ...) %81(ptr noundef %82, i32 noundef %83, ptr noundef @.str.1, i64 noundef %86, i64 noundef %89, i32 noundef %90)
  br label %92

92:                                               ; preds = %78, %72
  call void @llvm.lifetime.end.p0(i64 8, ptr %8) #6
  br label %93

93:                                               ; preds = %92, %68
  %94 = load i32, ptr %6, align 4, !tbaa !11
  store i32 %94, ptr %2, align 4
  store i32 1, ptr %7, align 4
  br label %95

95:                                               ; preds = %93, %18
  call void @llvm.lifetime.end.p0(i64 4, ptr %6) #6
  call void @llvm.lifetime.end.p0(i64 8, ptr %5) #6
  call void @llvm.lifetime.end.p0(i64 4, ptr %4) #6
  %96 = load i32, ptr %2, align 4
  ret i32 %96
}

; Function Attrs: nounwind uwtable
define hidden i32 @internal_exr_apply_zip(ptr noundef %0) #0 {
  %2 = alloca i32, align 4
  %3 = alloca ptr, align 8
  %4 = alloca i32, align 4
  %5 = alloca ptr, align 8
  %6 = alloca i32, align 4
  store ptr %0, ptr %3, align 8, !tbaa !31
  call void @llvm.lifetime.start.p0(i64 4, ptr %4) #6
  %7 = load ptr, ptr %3, align 8, !tbaa !31
  %8 = load ptr, ptr %3, align 8, !tbaa !31
  %9 = getelementptr inbounds nuw %struct._exr_encode_pipeline, ptr %8, i32 0, i32 19
  %10 = load ptr, ptr %3, align 8, !tbaa !31
  %11 = getelementptr inbounds nuw %struct._exr_encode_pipeline, ptr %10, i32 0, i32 20
  %12 = load ptr, ptr %3, align 8, !tbaa !31
  %13 = getelementptr inbounds nuw %struct._exr_encode_pipeline, ptr %12, i32 0, i32 9
  %14 = load i64, ptr %13, align 8, !tbaa !33
  %15 = call i32 @internal_encode_alloc_buffer(ptr noundef %7, i32 noundef 3, ptr noundef %9, ptr noundef %11, i64 noundef %14)
  store i32 %15, ptr %4, align 4, !tbaa !11
  %16 = load i32, ptr %4, align 4, !tbaa !11
  %17 = icmp ne i32 %16, 0
  br i1 %17, label %18, label %36

18:                                               ; preds = %1
  call void @llvm.lifetime.start.p0(i64 8, ptr %5) #6
  %19 = load ptr, ptr %3, align 8, !tbaa !31
  %20 = getelementptr inbounds nuw %struct._exr_encode_pipeline, ptr %19, i32 0, i32 5
  %21 = load ptr, ptr %20, align 8, !tbaa !35
  store ptr %21, ptr %5, align 8, !tbaa !36
  %22 = load ptr, ptr %5, align 8, !tbaa !36
  %23 = icmp ne ptr %22, null
  br i1 %23, label %24, label %34

24:                                               ; preds = %18
  %25 = load ptr, ptr %5, align 8, !tbaa !36
  %26 = getelementptr inbounds nuw %struct._priv_exr_context_t, ptr %25, i32 0, i32 14
  %27 = load ptr, ptr %26, align 8, !tbaa !37
  %28 = load ptr, ptr %5, align 8, !tbaa !36
  %29 = load i32, ptr %4, align 4, !tbaa !11
  %30 = load ptr, ptr %3, align 8, !tbaa !31
  %31 = getelementptr inbounds nuw %struct._exr_encode_pipeline, ptr %30, i32 0, i32 9
  %32 = load i64, ptr %31, align 8, !tbaa !33
  %33 = call i32 (ptr, i32, ptr, ...) %27(ptr noundef %28, i32 noundef %29, ptr noundef @.str, i64 noundef %32)
  br label %34

34:                                               ; preds = %24, %18
  %35 = load i32, ptr %4, align 4, !tbaa !11
  store i32 %35, ptr %2, align 4
  store i32 1, ptr %6, align 4
  call void @llvm.lifetime.end.p0(i64 8, ptr %5) #6
  br label %39

36:                                               ; preds = %1
  %37 = load ptr, ptr %3, align 8, !tbaa !31
  %38 = call i32 @apply_zip_impl(ptr noundef %37)
  store i32 %38, ptr %2, align 4
  store i32 1, ptr %6, align 4
  br label %39

39:                                               ; preds = %36, %34
  call void @llvm.lifetime.end.p0(i64 4, ptr %4) #6
  %40 = load i32, ptr %2, align 4
  ret i32 %40
}