; Function Attrs: nounwind uwtable
define hidden i32 @internal_exr_apply_zip(ptr noundef %0) local_unnamed_addr #6 {
  %2 = alloca i32, align 4
  %3 = alloca i64, align 8
  %4 = getelementptr inbounds nuw i8, ptr %0, i64 192
  %5 = getelementptr inbounds nuw i8, ptr %0, i64 200
  %6 = getelementptr inbounds nuw i8, ptr %0, i64 112
  %7 = load i64, ptr %6, align 8, !tbaa !25
  %8 = tail call i32 @internal_encode_alloc_buffer(ptr noundef %0, i32 noundef 3, ptr noundef nonnull %4, ptr noundef nonnull %5, i64 noundef %7) #8
  %.not = icmp eq i32 %8, 0
  br i1 %.not, label %17, label %9

9:                                                ; preds = %1
  %10 = getelementptr inbounds nuw i8, ptr %0, i64 24
  %11 = load ptr, ptr %10, align 8, !tbaa !27
  %.not15 = icmp eq ptr %11, null
  br i1 %.not15, label %78, label %12

12:                                               ; preds = %9
  %13 = getelementptr inbounds nuw i8, ptr %11, i64 72
  %14 = load ptr, ptr %13, align 8, !tbaa !28
  %15 = load i64, ptr %6, align 8, !tbaa !25
  %16 = tail call i32 (ptr, i32, ptr, ...) %14(ptr noundef nonnull %11, i32 noundef %8, ptr noundef nonnull @.str, i64 noundef %15) #8
  br label %78

17:                                               ; preds = %1
  call void @llvm.lifetime.start.p0(i64 4, ptr nonnull %2) #8
  call void @llvm.lifetime.start.p0(i64 8, ptr nonnull %3) #8
  %18 = getelementptr inbounds nuw i8, ptr %0, i64 24
  %19 = load ptr, ptr %18, align 8, !tbaa !27
  %20 = getelementptr inbounds nuw i8, ptr %0, i64 20
  %21 = load i32, ptr %20, align 4, !tbaa !40
  %22 = call i32 @exr_get_zip_compression_level(ptr noundef %19, i32 noundef %21, ptr noundef nonnull %2) #8
  %.not.i = icmp eq i32 %22, 0
  br i1 %.not.i, label %23, label %apply_zip_impl.exit

23:                                               ; preds = %17
  %24 = load ptr, ptr %4, align 8, !tbaa !41
  %25 = getelementptr inbounds nuw i8, ptr %0, i64 104
  %26 = load ptr, ptr %25, align 8, !tbaa !42
  %27 = load i64, ptr %6, align 8, !tbaa !25
  %28 = getelementptr inbounds nuw i8, ptr %26, i64 %27
  %.not.i.i = icmp eq i64 %27, 0
  br i1 %.not.i.i, label %internal_zip_deconstruct_bytes.exit.i, label %.lr.ph.preheader.i.i

.lr.ph.preheader.i.i:                             ; preds = %23
  %29 = add i64 %27, 1
  %30 = lshr i64 %29, 1
  %31 = getelementptr inbounds nuw i8, ptr %24, i64 %30
  br label %.lr.ph.i.i

.lr.ph.i.i:                                       ; preds = %40, %.lr.ph.preheader.i.i
  %.02636.i.i = phi ptr [ %34, %40 ], [ %24, %.lr.ph.preheader.i.i ]
  %.02735.i.i = phi ptr [ %.128.i.i, %40 ], [ %26, %.lr.ph.preheader.i.i ]
  %.02934.i.i = phi ptr [ %.130.i.i, %40 ], [ %31, %.lr.ph.preheader.i.i ]
  %32 = getelementptr inbounds nuw i8, ptr %.02735.i.i, i64 1
  %33 = load i8, ptr %.02735.i.i, align 1, !tbaa !3
  %34 = getelementptr inbounds nuw i8, ptr %.02636.i.i, i64 1
  store i8 %33, ptr %.02636.i.i, align 1, !tbaa !3
  %35 = icmp ult ptr %32, %28
  br i1 %35, label %36, label %40

36:                                               ; preds = %.lr.ph.i.i
  %37 = getelementptr inbounds nuw i8, ptr %.02735.i.i, i64 2
  %38 = load i8, ptr %32, align 1, !tbaa !3
  %39 = getelementptr inbounds nuw i8, ptr %.02934.i.i, i64 1
  store i8 %38, ptr %.02934.i.i, align 1, !tbaa !3
  br label %40

40:                                               ; preds = %36, %.lr.ph.i.i
  %.130.i.i = phi ptr [ %39, %36 ], [ %.02934.i.i, %.lr.ph.i.i ]
  %.128.i.i = phi ptr [ %37, %36 ], [ %32, %.lr.ph.i.i ]
  %41 = icmp ult ptr %.128.i.i, %28
  br i1 %41, label %.lr.ph.i.i, label %._crit_edge.i.i, !llvm.loop !10

._crit_edge.i.i:                                  ; preds = %40
  %42 = getelementptr inbounds nuw i8, ptr %24, i64 %27
  %.not43.i.i = icmp eq i64 %27, 1
  br i1 %.not43.i.i, label %internal_zip_deconstruct_bytes.exit.i, label %.lr.ph41.preheader.i.i

.lr.ph41.preheader.i.i:                           ; preds = %._crit_edge.i.i
  %.137.i.i = getelementptr inbounds nuw i8, ptr %24, i64 1
  %43 = load i8, ptr %24, align 1, !tbaa !3
  br label %.lr.ph41.i.i

.lr.ph41.i.i:                                     ; preds = %.lr.ph41.i.i, %.lr.ph41.preheader.i.i
  %.139.i.i = phi ptr [ %.1.i.i, %.lr.ph41.i.i ], [ %.137.i.i, %.lr.ph41.preheader.i.i ]
  %.038.i.i = phi i8 [ %44, %.lr.ph41.i.i ], [ %43, %.lr.ph41.preheader.i.i ]
  %44 = load i8, ptr %.139.i.i, align 1, !tbaa !3
  %45 = sub i8 %44, %.038.i.i
  %46 = xor i8 %45, -128
  store i8 %46, ptr %.139.i.i, align 1, !tbaa !3
  %.1.i.i = getelementptr inbounds nuw i8, ptr %.139.i.i, i64 1
  %47 = icmp ult ptr %.1.i.i, %42
  br i1 %47, label %.lr.ph41.i.i, label %internal_zip_deconstruct_bytes.exit.i, !llvm.loop !11

internal_zip_deconstruct_bytes.exit.i:            ; preds = %.lr.ph41.i.i, %._crit_edge.i.i, %23
  %48 = load ptr, ptr %18, align 8, !tbaa !27
  %49 = load i32, ptr %2, align 4, !tbaa !43
  %50 = load ptr, ptr %4, align 8, !tbaa !41
  %51 = load i64, ptr %6, align 8, !tbaa !25
  %52 = getelementptr inbounds nuw i8, ptr %0, i64 168
  %53 = load ptr, ptr %52, align 8, !tbaa !44
  %54 = getelementptr inbounds nuw i8, ptr %0, i64 184
  %55 = load i64, ptr %54, align 8, !tbaa !45
  %56 = call i32 @exr_compress_buffer(ptr noundef %48, i32 noundef %49, ptr noundef %50, i64 noundef %51, ptr noundef %53, i64 noundef %55, ptr noundef nonnull %3) #8
  %57 = icmp eq i32 %56, 0
  br i1 %57, label %58, label %69

58:                                               ; preds = %internal_zip_deconstruct_bytes.exit.i
  %59 = load i64, ptr %3, align 8, !tbaa !24
  %60 = load i64, ptr %6, align 8, !tbaa !25
  %61 = icmp ugt i64 %59, %60
  br i1 %61, label %62, label %66

62:                                               ; preds = %58
  %63 = load ptr, ptr %52, align 8, !tbaa !44
  %64 = load ptr, ptr %25, align 8, !tbaa !42
  call void @llvm.memcpy.p0.p0.i64(ptr align 1 %63, ptr align 1 %64, i64 %60, i1 false)
  %65 = load i64, ptr %6, align 8, !tbaa !25
  br label %66

66:                                               ; preds = %62, %58
  %67 = phi i64 [ %65, %62 ], [ %59, %58 ]
  %68 = getelementptr inbounds nuw i8, ptr %0, i64 176
  store i64 %67, ptr %68, align 8, !tbaa !46
  br label %apply_zip_impl.exit

69:                                               ; preds = %internal_zip_deconstruct_bytes.exit.i
  %70 = load ptr, ptr %18, align 8, !tbaa !27
  %.not31.i = icmp eq ptr %70, null
  br i1 %.not31.i, label %apply_zip_impl.exit, label %71

71:                                               ; preds = %69
  %72 = getelementptr inbounds nuw i8, ptr %70, i64 72
  %73 = load ptr, ptr %72, align 8, !tbaa !28
  %74 = load i64, ptr %6, align 8, !tbaa !25
  %75 = load i64, ptr %54, align 8, !tbaa !45
  %76 = load i32, ptr %2, align 4, !tbaa !43
  %77 = call i32 (ptr, i32, ptr, ...) %73(ptr noundef nonnull %70, i32 noundef %56, ptr noundef nonnull @.str.1, i64 noundef %74, i64 noundef %75, i32 noundef %76) #8
  br label %apply_zip_impl.exit

apply_zip_impl.exit:                              ; preds = %17, %66, %69, %71
  %.0.i = phi i32 [ %22, %17 ], [ %56, %69 ], [ %56, %71 ], [ 0, %66 ]
  call void @llvm.lifetime.end.p0(i64 8, ptr nonnull %3) #8
  call void @llvm.lifetime.end.p0(i64 4, ptr nonnull %2) #8
  br label %78

78:                                               ; preds = %9, %12, %apply_zip_impl.exit
  %.0 = phi i32 [ %.0.i, %apply_zip_impl.exit ], [ %8, %12 ], [ %8, %9 ]
  ret i32 %.0
}